target datalayout = "e-m:e-p270:32:32-p271:32:32-p272:64:64-i64:64-i128:128-f80:128-n8:16:32:64-S128"
target triple = "x86_64-pc-linux-gnu"

@.str.1 = private unnamed_addr constant [5 x i8] c"\ED\AB\EE\DB\00", align 1

; Function Attrs: nounwind uwtable
define internal i32 @rpm_bidder_bid(ptr noundef %0, ptr noundef %1) #0 {
  %3 = alloca i32, align 4
  %4 = alloca ptr, align 8
  %5 = alloca ptr, align 8
  %6 = alloca ptr, align 8
  %7 = alloca i64, align 8
  %8 = alloca i32, align 4
  %9 = alloca i32, align 4
  store ptr %0, ptr %4, align 8, !tbaa !11
  store ptr %1, ptr %5, align 8, !tbaa !13
  call void @llvm.lifetime.start.p0(i64 8, ptr %6) #8
  call void @llvm.lifetime.start.p0(i64 8, ptr %7) #8
  call void @llvm.lifetime.start.p0(i64 4, ptr %8) #8
  %10 = load ptr, ptr %5, align 8, !tbaa !13
  %11 = call ptr @__archive_read_filter_ahead(ptr noundef %10, i64 noundef 8, ptr noundef %7)
  store ptr %11, ptr %6, align 8, !tbaa !15
  %12 = load ptr, ptr %6, align 8, !tbaa !15
  %13 = icmp eq ptr %12, null
  br i1 %13, label %14, label %15

14:                                               ; preds = %2
  store i32 0, ptr %3, align 4
  store i32 1, ptr %9, align 4
  br label %63

15:                                               ; preds = %2
  store i32 0, ptr %8, align 4, !tbaa !17
  %16 = load ptr, ptr %6, align 8, !tbaa !15
  %17 = call i32 @memcmp(ptr noundef %16, ptr noundef @.str.1, i64 noundef 4) #9
  %18 = icmp ne i32 %17, 0
  br i1 %18, label %19, label %20

19:                                               ; preds = %15
  store i32 0, ptr %3, align 4
  store i32 1, ptr %9, align 4
  br label %63

20:                                               ; preds = %15
  %21 = load i32, ptr %8, align 4, !tbaa !17
  %22 = add nsw i32 %21, 32
  store i32 %22, ptr %8, align 4, !tbaa !17
  %23 = load ptr, ptr %6, align 8, !tbaa !15
  %24 = getelementptr inbounds i8, ptr %23, i64 4
  %25 = load i8, ptr %24, align 1, !tbaa !19
  %26 = zext i8 %25 to i32
  %27 = icmp ne i32 %26, 3
  br i1 %27, label %28, label %35

28:                                               ; preds = %20
  %29 = load ptr, ptr %6, align 8, !tbaa !15
  %30 = getelementptr inbounds i8, ptr %29, i64 4
  %31 = load i8, ptr %30, align 1, !tbaa !19
  %32 = zext i8 %31 to i32
  %33 = icmp ne i32 %32, 4
  br i1 %33, label %34, label %35

34:                                               ; preds = %28
  store i32 0, ptr %3, align 4
  store i32 1, ptr %9, align 4
  br label %63

35:                                               ; preds = %28, %20
  %36 = load i32, ptr %8, align 4, !tbaa !17
  %37 = add nsw i32 %36, 8
  store i32 %37, ptr %8, align 4, !tbaa !17
  %38 = load ptr, ptr %6, align 8, !tbaa !15
  %39 = getelementptr inbounds i8, ptr %38, i64 6
  %40 = load i8, ptr %39, align 1, !tbaa !19
  %41 = zext i8 %40 to i32
  %42 = icmp ne i32 %41, 0
  br i1 %42, label %43, label %44

43:                                               ; preds = %35
  store i32 0, ptr %3, align 4
  store i32 1, ptr %9, align 4
  br label %63

44:                                               ; preds = %35
  %45 = load i32, ptr %8, align 4, !tbaa !17
  %46 = add nsw i32 %45, 8
  store i32 %46, ptr %8, align 4, !tbaa !17
  %47 = load ptr, ptr %6, align 8, !tbaa !15
  %48 = getelementptr inbounds i8, ptr %47, i64 7
  %49 = load i8, ptr %48, align 1, !tbaa !19
  %50 = zext i8 %49 to i32
  %51 = icmp ne i32 %50, 0
  br i1 %51, label %52, label %59

52:                                               ; preds = %44
  %53 = load ptr, ptr %6, align 8, !tbaa !15
  %54 = getelementptr inbounds i8, ptr %53, i64 7
  %55 = load i8, ptr %54, align 1, !tbaa !19
  %56 = zext i8 %55 to i32
  %57 = icmp ne i32 %56, 1
  br i1 %57, label %58, label %59

58:                                               ; preds = %52
  store i32 0, ptr %3, align 4
  store i32 1, ptr %9, align 4
  br label %63

59:                                               ; preds = %52, %44
  %60 = load i32, ptr %8, align 4, !tbaa !17
  %61 = add nsw i32 %60, 8
  store i32 %61, ptr %8, align 4, !tbaa !17
  %62 = load i32, ptr %8, align 4, !tbaa !17
  store i32 %62, ptr %3, align 4
  store i32 1, ptr %9, align 4
  br label %63

63:                                               ; preds = %59, %58, %43, %34, %19, %14
  call void @llvm.lifetime.end.p0(i64 4, ptr %8) #8
  call void @llvm.lifetime.end.p0(i64 8, ptr %7) #8
  call void @llvm.lifetime.end.p0(i64 8, ptr %6) #8
  %64 = load i32, ptr %3, align 4
  ret i32 %64
}