; Function Attrs: nounwind uwtable
define internal range(i32 0, 57) i32 @rpm_bidder_bid(ptr readnone captures(none) %0, ptr noundef %1) #0 {
  %3 = alloca i64, align 8
  call void @llvm.lifetime.start.p0(i64 8, ptr nonnull %3) #10
  %4 = call ptr @__archive_read_filter_ahead(ptr noundef %1, i64 noundef 8, ptr noundef nonnull %3) #10
  %5 = icmp eq ptr %4, null
  br i1 %5, label %16, label %6

6:                                                ; preds = %2
  %bcmp = call i32 @bcmp(ptr noundef nonnull dereferenceable(4) %4, ptr noundef nonnull dereferenceable(4) @.str.1, i64 4)
  %.not = icmp eq i32 %bcmp, 0
  br i1 %.not, label %7, label %16

7:                                                ; preds = %6
  %8 = getelementptr inbounds nuw i8, ptr %4, i64 4
  %9 = load i8, ptr %8, align 1, !tbaa !4
  %.off = add i8 %9, -3
  %switch = icmp ult i8 %.off, 2
  br i1 %switch, label %10, label %16

10:                                               ; preds = %7
  %11 = getelementptr inbounds nuw i8, ptr %4, i64 6
  %12 = load i8, ptr %11, align 1, !tbaa !4
  %.not18 = icmp eq i8 %12, 0
  br i1 %.not18, label %13, label %16

13:                                               ; preds = %10
  %14 = getelementptr inbounds nuw i8, ptr %4, i64 7
  %15 = load i8, ptr %14, align 1, !tbaa !4
  %switch21 = icmp ult i8 %15, 2
  %spec.select = select i1 %switch21, i32 56, i32 0
  br label %16

16:                                               ; preds = %13, %7, %10, %6, %2
  %.0 = phi i32 [ 0, %2 ], [ 0, %6 ], [ 0, %7 ], [ 0, %10 ], [ %spec.select, %13 ]
  call void @llvm.lifetime.end.p0(i64 8, ptr nonnull %3) #10
  ret i32 %.0
}